; Function Attrs: nofree norecurse nosync nounwind memory(readwrite, inaccessiblemem: none) uwtable
define void @Bac_ManMarkNodesGia(ptr noundef readonly captures(none) %0, ptr noundef readonly captures(none) %1) local_unnamed_addr #4 {
  %3 = getelementptr i8, ptr %1, i64 32
  %.val38 = load ptr, ptr %3, align 8
  %4 = getelementptr inbounds nuw i8, ptr %.val38, i64 8
  store i32 1, ptr %4, align 4
  %5 = getelementptr i8, ptr %1, i64 16
  %6 = getelementptr i8, ptr %1, i64 64
  %.val3951 = load i32, ptr %5, align 8
  %.val4052 = load ptr, ptr %6, align 8
  %7 = getelementptr i8, ptr %.val4052, i64 4
  %.val40.val53 = load i32, ptr %7, align 4
  %8 = icmp sgt i32 %.val40.val53, %.val3951
  br i1 %8, label %.lr.ph.preheader, label %.critedge

.lr.ph.preheader:                                 ; preds = %2
  %.val4180 = load ptr, ptr %3, align 8
  %.not81 = icmp eq ptr %.val4180, null
  br i1 %.not81, label %.critedge, label %.lr.ph85

.lr.ph:                                           ; preds = %.lr.ph85
  %.val41 = load ptr, ptr %3, align 8
  %.not = icmp eq ptr %.val41, null
  br i1 %.not, label %.critedge, label %.lr.ph85, !llvm.loop !21

.lr.ph85:                                         ; preds = %.lr.ph.preheader, %.lr.ph
  %.val4184 = phi ptr [ %.val41, %.lr.ph ], [ %.val4180, %.lr.ph.preheader ]
  %.val405583 = phi ptr [ %.val40, %.lr.ph ], [ %.val4052, %.lr.ph.preheader ]
  %indvars.iv82 = phi i64 [ %indvars.iv.next, %.lr.ph ], [ 0, %.lr.ph.preheader ]
  %9 = getelementptr i8, ptr %.val405583, i64 8
  %.val42.val = load ptr, ptr %9, align 8
  %10 = getelementptr inbounds nuw i32, ptr %.val42.val, i64 %indvars.iv82
  %11 = load i32, ptr %10, align 4
  %12 = sext i32 %11 to i64
  %13 = getelementptr inbounds %struct.Gia_Obj_t_, ptr %.val4184, i64 %12, i32 1
  store i32 1, ptr %13, align 4
  %indvars.iv.next = add nuw nsw i64 %indvars.iv82, 1
  %.val39 = load i32, ptr %5, align 8
  %.val40 = load ptr, ptr %6, align 8
  %14 = getelementptr i8, ptr %.val40, i64 4
  %.val40.val = load i32, ptr %14, align 4
  %15 = sub nsw i32 %.val40.val, %.val39
  %16 = sext i32 %15 to i64
  %17 = icmp slt i64 %indvars.iv.next, %16
  br i1 %17, label %.lr.ph, label %.critedge, !llvm.loop !21

.critedge:                                        ; preds = %.lr.ph85, %.lr.ph, %.lr.ph.preheader, %2
  %.val456176 = phi i32 [ %.val3951, %2 ], [ %.val3951, %.lr.ph.preheader ], [ %.val39, %.lr.ph ], [ %.val39, %.lr.ph85 ]
  %18 = getelementptr inbounds nuw i8, ptr %1, i64 24
  %19 = load i32, ptr %18, align 8
  %20 = icmp sgt i32 %19, 0
  br i1 %20, label %.lr.ph59, label %.critedge2

.lr.ph59:                                         ; preds = %.critedge
  %21 = getelementptr i8, ptr %0, i64 104
  br label %22

22:                                               ; preds = %.lr.ph59, %43
  %indvars.iv69 = phi i64 [ 0, %.lr.ph59 ], [ %indvars.iv.next70, %43 ]
  %.058 = phi i32 [ 0, %.lr.ph59 ], [ %.1, %43 ]
  %.val37 = load ptr, ptr %3, align 8
  %23 = getelementptr inbounds nuw %struct.Gia_Obj_t_, ptr %.val37, i64 %indvars.iv69
  %.not33 = icmp eq ptr %.val37, null
  br i1 %.not33, label %.critedge2.loopexit, label %24

24:                                               ; preds = %22
  %.val43 = load i64, ptr %23, align 4
  %25 = and i64 %.val43, 2147483648
  %.not.i = icmp eq i64 %25, 0
  %26 = and i64 %.val43, 536870911
  %27 = icmp ne i64 %26, 536870911
  %narrow.i = and i1 %.not.i, %27
  br i1 %narrow.i, label %28, label %43

28:                                               ; preds = %24
  %29 = trunc i64 %.val43 to i32
  %30 = and i32 %29, 536870911
  %31 = lshr i64 %.val43, 32
  %32 = trunc nuw i64 %31 to i32
  %33 = and i32 %32, 536870911
  %34 = icmp eq i32 %30, %33
  %.not.i49 = icmp ne i32 %30, 536870911
  %or.cond.not.i = and i1 %.not.i49, %34
  br i1 %or.cond.not.i, label %35, label %39

35:                                               ; preds = %28
  %36 = add nsw i32 %.058, 1
  %.val = load ptr, ptr %21, align 8
  %37 = sext i32 %.058 to i64
  %38 = getelementptr inbounds i32, ptr %.val, i64 %37
  br label %.sink.split

39:                                               ; preds = %28
  %40 = sub nsw i64 0, %26
  %41 = getelementptr inbounds %struct.Gia_Obj_t_, ptr %23, i64 %40, i32 1
  br label %.sink.split

.sink.split:                                      ; preds = %35, %39
  %.sink.in = phi ptr [ %41, %39 ], [ %38, %35 ]
  %.1.ph = phi i32 [ %.058, %39 ], [ %36, %35 ]
  %.sink = load i32, ptr %.sink.in, align 4
  %42 = getelementptr inbounds nuw i8, ptr %23, i64 8
  store i32 %.sink, ptr %42, align 4
  br label %43

43:                                               ; preds = %.sink.split, %24
  %.1 = phi i32 [ %.058, %24 ], [ %.1.ph, %.sink.split ]
  %indvars.iv.next70 = add nuw nsw i64 %indvars.iv69, 1
  %44 = load i32, ptr %18, align 8
  %45 = sext i32 %44 to i64
  %46 = icmp slt i64 %indvars.iv.next70, %45
  br i1 %46, label %22, label %.critedge2.loopexit, !llvm.loop !22

.critedge2.loopexit:                              ; preds = %43, %22
  %.val4561.pre = load i32, ptr %5, align 8
  br label %.critedge2

.critedge2:                                       ; preds = %.critedge2.loopexit, %.critedge
  %.val4561 = phi i32 [ %.val4561.pre, %.critedge2.loopexit ], [ %.val456176, %.critedge ]
  %47 = getelementptr i8, ptr %1, i64 72
  %.val4662 = load ptr, ptr %47, align 8
  %48 = getelementptr i8, ptr %.val4662, i64 4
  %.val46.val63 = load i32, ptr %48, align 4
  %49 = icmp sgt i32 %.val46.val63, %.val4561
  br i1 %49, label %.lr.ph66, label %.critedge4

.lr.ph66:                                         ; preds = %.critedge2, %50
  %indvars.iv72 = phi i64 [ %indvars.iv.next73, %50 ], [ 0, %.critedge2 ]
  %.val4665 = phi ptr [ %.val46, %50 ], [ %.val4662, %.critedge2 ]
  %.val47 = load ptr, ptr %3, align 8
  %.not34 = icmp eq ptr %.val47, null
  br i1 %.not34, label %.critedge4, label %50

50:                                               ; preds = %.lr.ph66
  %51 = getelementptr i8, ptr %.val4665, i64 8
  %.val48.val = load ptr, ptr %51, align 8
  %52 = getelementptr inbounds nuw i32, ptr %.val48.val, i64 %indvars.iv72
  %53 = load i32, ptr %52, align 4
  %54 = sext i32 %53 to i64
  %55 = getelementptr inbounds %struct.Gia_Obj_t_, ptr %.val47, i64 %54, i32 1
  store i32 1, ptr %55, align 4
  %indvars.iv.next73 = add nuw nsw i64 %indvars.iv72, 1
  %.val45 = load i32, ptr %5, align 8
  %.val46 = load ptr, ptr %47, align 8
  %56 = getelementptr i8, ptr %.val46, i64 4
  %.val46.val = load i32, ptr %56, align 4
  %57 = sub nsw i32 %.val46.val, %.val45
  %58 = sext i32 %57 to i64
  %59 = icmp slt i64 %indvars.iv.next73, %58
  br i1 %59, label %.lr.ph66, label %.critedge4, !llvm.loop !23

.critedge4:                                       ; preds = %.lr.ph66, %50, %.critedge2
  ret void
}